target datalayout = "e-m:e-p270:32:32-p271:32:32-p272:64:64-i64:64-i128:128-f80:128-n8:16:32:64-S128"
target triple = "x86_64-pc-linux-gnu"

%"class.nix::AutoCloseFD" = type { i32 }

@.str = private unnamed_addr constant [33 x i8] c"cannot create Unix domain socket\00", align 1
@_ZTIN3nix8SysErrorE = linkonce_odr constant { ptr, ptr, ptr } { ptr getelementptr inbounds (ptr, ptr @_ZTVN10__cxxabiv120__si_class_type_infoE, i64 2), ptr @_ZTSN3nix8SysErrorE, ptr @_ZTIN3nix11SystemErrorE }, comdat, align 8

; Function Attrs: mustprogress uwtable
define linkonce_odr void @_ZN3nix8SysErrorC2IJA33_cEEEDpRKT_(ptr noundef nonnull align 8 dereferenceable(380) %0, ptr noundef nonnull align 1 dereferenceable(33) %1) unnamed_addr #3 comdat align 2 {
  %3 = alloca ptr, align 8
  %4 = alloca ptr, align 8
  store ptr %0, ptr %3, align 8
  store ptr %1, ptr %4, align 8
  %5 = load ptr, ptr %3, align 8
  %6 = call ptr @__errno_location() #18
  %7 = load i32, ptr %6, align 4
  %8 = load ptr, ptr %4, align 8
  call void @_ZN3nix8SysErrorC2IJA33_cEEEiDpRKT_(ptr noundef nonnull align 8 dereferenceable(380) %5, i32 noundef %7, ptr noundef nonnull align 1 dereferenceable(33) %8)
  ret void
}

; Function Attrs: mustprogress uwtable
define void @_ZN3nix22createUnixDomainSocketEv(ptr dead_on_unwind noalias writable sret(%"class.nix::AutoCloseFD") align 4 %0) #3 personality ptr @__gxx_personality_v0 {
  %2 = alloca ptr, align 8
  %3 = alloca i1, align 1
  %4 = alloca ptr, align 8
  %5 = alloca i32, align 4
  store ptr %0, ptr %2, align 8
  store i1 false, ptr %3, align 1
  %6 = call i32 @socket(i32 noundef 1, i32 noundef 524289, i32 noundef 0) #1
  call void @_ZN3nix11AutoCloseFDC1Ei(ptr noundef nonnull align 4 dereferenceable(4) %0, i32 noundef %6)
  %7 = invoke noundef zeroext i1 @_ZNK3nix11AutoCloseFDcvbEv(ptr noundef nonnull align 4 dereferenceable(4) %0)
          to label %8 unwind label %12

8:                                                ; preds = %1
  br i1 %7, label %20, label %9

9:                                                ; preds = %8
  %10 = call ptr @__cxa_allocate_exception(i64 384) #1
  invoke void @_ZN3nix8SysErrorC2IJA33_cEEEDpRKT_(ptr noundef nonnull align 8 dereferenceable(380) %10, ptr noundef nonnull align 1 dereferenceable(33) @.str)
          to label %11 unwind label %16

11:                                               ; preds = %9
  invoke void @__cxa_throw(ptr %10, ptr @_ZTIN3nix8SysErrorE, ptr @_ZN3nix8SysErrorD2Ev) #17
          to label %33 unwind label %12

12:                                               ; preds = %22, %20, %11, %1
  %13 = landingpad { ptr, i32 }
          cleanup
  %14 = extractvalue { ptr, i32 } %13, 0
  store ptr %14, ptr %4, align 8
  %15 = extractvalue { ptr, i32 } %13, 1
  store i32 %15, ptr %5, align 4
  br label %27

16:                                               ; preds = %9
  %17 = landingpad { ptr, i32 }
          cleanup
  %18 = extractvalue { ptr, i32 } %17, 0
  store ptr %18, ptr %4, align 8
  %19 = extractvalue { ptr, i32 } %17, 1
  store i32 %19, ptr %5, align 4
  call void @__cxa_free_exception(ptr %10) #1
  br label %27

20:                                               ; preds = %8
  %21 = invoke noundef i32 @_ZNK3nix11AutoCloseFD3getEv(ptr noundef nonnull align 4 dereferenceable(4) %0)
          to label %22 unwind label %12

22:                                               ; preds = %20
  invoke void @_ZN3nix11closeOnExecEi(i32 noundef %21)
          to label %23 unwind label %12

23:                                               ; preds = %22
  store i1 true, ptr %3, align 1
  %24 = load i1, ptr %3, align 1
  br i1 %24, label %26, label %25

25:                                               ; preds = %23
  call void @_ZN3nix11AutoCloseFDD1Ev(ptr noundef nonnull align 4 dereferenceable(4) %0) #1
  br label %26

26:                                               ; preds = %25, %23
  ret void

27:                                               ; preds = %16, %12
  call void @_ZN3nix11AutoCloseFDD1Ev(ptr noundef nonnull align 4 dereferenceable(4) %0) #1
  br label %28

28:                                               ; preds = %27
  %29 = load ptr, ptr %4, align 8
  %30 = load i32, ptr %5, align 4
  %31 = insertvalue { ptr, i32 } poison, ptr %29, 0
  %32 = insertvalue { ptr, i32 } %31, i32 %30, 1
  resume { ptr, i32 } %32

33:                                               ; preds = %11
  unreachable
}