; Function Attrs: mustprogress uwtable
define void @_ZN3nix22createUnixDomainSocketEv(ptr dead_on_unwind noalias writable sret(%"class.nix::AutoCloseFD") align 4 %0) local_unnamed_addr #2 personality ptr @__gxx_personality_v0 {
  %2 = tail call i32 @socket(i32 noundef 1, i32 noundef 524289, i32 noundef 0) #22
  tail call void @_ZN3nix11AutoCloseFDC1Ei(ptr noundef nonnull align 4 dereferenceable(4) %0, i32 noundef %2)
  %3 = invoke noundef zeroext i1 @_ZNK3nix11AutoCloseFDcvbEv(ptr noundef nonnull align 4 dereferenceable(4) %0)
          to label %4 unwind label %9

4:                                                ; preds = %1
  br i1 %3, label %13, label %5

5:                                                ; preds = %4
  %6 = tail call ptr @__cxa_allocate_exception(i64 384) #22
  %7 = tail call ptr @__errno_location() #23
  %8 = load i32, ptr %7, align 4
  invoke void @_ZN3nix8SysErrorC2IJA33_cEEEiDpRKT_(ptr noundef nonnull align 8 dereferenceable(380) %6, i32 noundef %8, ptr noundef nonnull align 1 dereferenceable(33) @.str)
          to label %_ZN3nix8SysErrorC2IJA33_cEEEDpRKT_.exit unwind label %11

_ZN3nix8SysErrorC2IJA33_cEEEDpRKT_.exit:          ; preds = %5
  invoke void @__cxa_throw(ptr nonnull %6, ptr nonnull @_ZTIN3nix8SysErrorE, ptr nonnull @_ZN3nix8SysErrorD2Ev) #24
          to label %18 unwind label %9

9:                                                ; preds = %15, %13, %_ZN3nix8SysErrorC2IJA33_cEEEDpRKT_.exit, %1
  %10 = landingpad { ptr, i32 }
          cleanup
  br label %17

11:                                               ; preds = %5
  %12 = landingpad { ptr, i32 }
          cleanup
  tail call void @__cxa_free_exception(ptr %6) #22
  br label %17

13:                                               ; preds = %4
  %14 = invoke noundef i32 @_ZNK3nix11AutoCloseFD3getEv(ptr noundef nonnull align 4 dereferenceable(4) %0)
          to label %15 unwind label %9

15:                                               ; preds = %13
  invoke void @_ZN3nix11closeOnExecEi(i32 noundef %14)
          to label %16 unwind label %9

16:                                               ; preds = %15
  ret void

17:                                               ; preds = %11, %9
  %.pn = phi { ptr, i32 } [ %10, %9 ], [ %12, %11 ]
  tail call void @_ZN3nix11AutoCloseFDD1Ev(ptr noundef nonnull align 4 dereferenceable(4) %0) #22
  resume { ptr, i32 } %.pn

18:                                               ; preds = %_ZN3nix8SysErrorC2IJA33_cEEEDpRKT_.exit
  unreachable
}